; Function Attrs: nounwind uwtable
define internal ptr @aes_128wrap_newctx(ptr readnone captures(none) %0) #0 {
  %2 = tail call i32 @ossl_prov_is_running() #3
  %.not.i = icmp eq i32 %2, 0
  br i1 %.not.i, label %aes_wrap_newctx.exit, label %3

3:                                                ; preds = %1
  %4 = tail call noalias ptr @CRYPTO_zalloc(i64 noundef 448, ptr noundef nonnull @.str, i32 noundef 59) #3
  %.not12.i = icmp eq ptr %4, null
  br i1 %.not12.i, label %aes_wrap_newctx.exit, label %5

5:                                                ; preds = %3
  tail call void @ossl_cipher_generic_initkey(ptr noundef nonnull %4, i64 noundef 128, i64 noundef 64, i64 noundef 64, i32 noundef 65538, i64 noundef 2, ptr noundef null, ptr noundef null) #3
  %6 = getelementptr inbounds nuw i8, ptr %4, i64 80
  %7 = load i64, ptr %6, align 8, !tbaa !3
  %8 = icmp eq i64 %7, 4
  %9 = getelementptr inbounds nuw i8, ptr %4, i64 108
  %10 = zext i1 %8 to i8
  %11 = load i8, ptr %9, align 4
  %12 = and i8 %11, -2
  %13 = or disjoint i8 %12, %10
  store i8 %13, ptr %9, align 4
  br label %aes_wrap_newctx.exit

aes_wrap_newctx.exit:                             ; preds = %1, %3, %5
  %.0.i = phi ptr [ null, %1 ], [ %4, %5 ], [ null, %3 ]
  ret ptr %.0.i
}